target datalayout = "e-m:e-p270:32:32-p271:32:32-p272:64:64-i64:64-i128:128-f80:128-n8:16:32:64-S128"
target triple = "x86_64-pc-linux-gnu"

%struct.prov_aes_hmac_sha_ctx_st = type { %struct.prov_cipher_ctx_st, %struct.aes_key_st, i64, %union.anon.0, ptr, i32, i32, i64, i64, i64 }
%struct.prov_cipher_ctx_st = type { [16 x i8], [16 x i8], [16 x i8], ptr, %union.anon, i32, i64, i64, i64, i64, i32, i8, i32, ptr, i32, i64, i32, i64, i32, ptr, ptr, ptr }
%union.anon = type { ptr }
%struct.aes_key_st = type { [60 x i32], i32 }
%union.anon.0 = type { i32, [12 x i8] }
%struct.prov_cipher_hw_aes_hmac_sha_ctx_st = type { %struct.prov_cipher_hw_st, ptr, ptr, ptr, ptr, ptr }
%struct.prov_cipher_hw_st = type { ptr, ptr, ptr }
%struct.prov_aes_hmac_sha256_ctx_st = type { %struct.prov_aes_hmac_sha_ctx_st, %struct.SHA256state_st, %struct.SHA256state_st, %struct.SHA256state_st }
%struct.SHA256state_st = type { [8 x i32], i32, i32, [16 x i32], i32, i32 }

@.str = private unnamed_addr constant [71 x i8] c"../openssl/providers/implementations/ciphers/cipher_aes_cbc_hmac_sha.c\00", align 1

; Function Attrs: nounwind uwtable
define internal void @base_init(ptr noundef %0, ptr noundef %1, ptr noundef %2, i64 noundef %3, i64 noundef %4, i64 noundef %5, i64 noundef %6) #0 {
  %8 = alloca ptr, align 8
  %9 = alloca ptr, align 8
  %10 = alloca ptr, align 8
  %11 = alloca i64, align 8
  %12 = alloca i64, align 8
  %13 = alloca i64, align 8
  %14 = alloca i64, align 8
  store ptr %0, ptr %8, align 8, !tbaa !3
  store ptr %1, ptr %9, align 8, !tbaa !15
  store ptr %2, ptr %10, align 8, !tbaa !25
  store i64 %3, ptr %11, align 8, !tbaa !11
  store i64 %4, ptr %12, align 8, !tbaa !11
  store i64 %5, ptr %13, align 8, !tbaa !11
  store i64 %6, ptr %14, align 8, !tbaa !11
  %15 = load ptr, ptr %9, align 8, !tbaa !15
  %16 = getelementptr inbounds nuw %struct.prov_aes_hmac_sha_ctx_st, ptr %15, i32 0, i32 0
  %17 = load i64, ptr %11, align 8, !tbaa !11
  %18 = load i64, ptr %12, align 8, !tbaa !11
  %19 = load i64, ptr %13, align 8, !tbaa !11
  %20 = load i64, ptr %14, align 8, !tbaa !11
  %21 = load ptr, ptr %10, align 8, !tbaa !25
  %22 = getelementptr inbounds nuw %struct.prov_cipher_hw_aes_hmac_sha_ctx_st, ptr %21, i32 0, i32 0
  %23 = load ptr, ptr %8, align 8, !tbaa !3
  call void @ossl_cipher_generic_initkey(ptr noundef %16, i64 noundef %17, i64 noundef %18, i64 noundef %19, i32 noundef 2, i64 noundef %20, ptr noundef %22, ptr noundef %23)
  %24 = load ptr, ptr %9, align 8, !tbaa !15
  %25 = getelementptr inbounds nuw %struct.prov_aes_hmac_sha_ctx_st, ptr %24, i32 0, i32 0
  %26 = getelementptr inbounds nuw %struct.prov_cipher_ctx_st, ptr %25, i32 0, i32 19
  %27 = load ptr, ptr %26, align 8, !tbaa !52
  %28 = load ptr, ptr %9, align 8, !tbaa !15
  %29 = getelementptr inbounds nuw %struct.prov_aes_hmac_sha_ctx_st, ptr %28, i32 0, i32 4
  store ptr %27, ptr %29, align 8, !tbaa !17
  ret void
}

; Function Attrs: nounwind uwtable
define internal ptr @aes_cbc_hmac_sha256_newctx(ptr noundef %0, i64 noundef %1, i64 noundef %2, i64 noundef %3, i64 noundef %4) #0 {
  %6 = alloca ptr, align 8
  %7 = alloca ptr, align 8
  %8 = alloca i64, align 8
  %9 = alloca i64, align 8
  %10 = alloca i64, align 8
  %11 = alloca i64, align 8
  %12 = alloca ptr, align 8
  %13 = alloca i32, align 4
  store ptr %0, ptr %7, align 8, !tbaa !3
  store i64 %1, ptr %8, align 8, !tbaa !11
  store i64 %2, ptr %9, align 8, !tbaa !11
  store i64 %3, ptr %10, align 8, !tbaa !11
  store i64 %4, ptr %11, align 8, !tbaa !11
  call void @llvm.lifetime.start.p0(i64 8, ptr %12) #5
  %14 = call i32 @ossl_prov_is_running()
  %15 = icmp ne i32 %14, 0
  br i1 %15, label %17, label %16

16:                                               ; preds = %5
  store ptr null, ptr %6, align 8
  store i32 1, ptr %13, align 4
  br label %32

17:                                               ; preds = %5
  %18 = call noalias ptr @CRYPTO_zalloc(i64 noundef 840, ptr noundef @.str, i32 noundef 369)
  store ptr %18, ptr %12, align 8, !tbaa !50
  %19 = load ptr, ptr %12, align 8, !tbaa !50
  %20 = icmp ne ptr %19, null
  br i1 %20, label %21, label %30

21:                                               ; preds = %17
  %22 = load ptr, ptr %7, align 8, !tbaa !3
  %23 = load ptr, ptr %12, align 8, !tbaa !50
  %24 = getelementptr inbounds nuw %struct.prov_aes_hmac_sha256_ctx_st, ptr %23, i32 0, i32 0
  %25 = call ptr @ossl_prov_cipher_hw_aes_cbc_hmac_sha256()
  %26 = load i64, ptr %8, align 8, !tbaa !11
  %27 = load i64, ptr %9, align 8, !tbaa !11
  %28 = load i64, ptr %10, align 8, !tbaa !11
  %29 = load i64, ptr %11, align 8, !tbaa !11
  call void @base_init(ptr noundef %22, ptr noundef %24, ptr noundef %25, i64 noundef %26, i64 noundef %27, i64 noundef %28, i64 noundef %29)
  br label %30

30:                                               ; preds = %21, %17
  %31 = load ptr, ptr %12, align 8, !tbaa !50
  store ptr %31, ptr %6, align 8
  store i32 1, ptr %13, align 4
  br label %32

32:                                               ; preds = %30, %16
  call void @llvm.lifetime.end.p0(i64 8, ptr %12) #5
  %33 = load ptr, ptr %6, align 8
  ret ptr %33
}

; Function Attrs: nounwind uwtable
define internal ptr @aes_128_cbc_hmac_sha256_newctx(ptr noundef %0) #0 {
  %2 = alloca ptr, align 8
  store ptr %0, ptr %2, align 8, !tbaa !3
  %3 = load ptr, ptr %2, align 8, !tbaa !3
  %4 = call ptr @aes_cbc_hmac_sha256_newctx(ptr noundef %3, i64 noundef 128, i64 noundef 128, i64 noundef 128, i64 noundef 9)
  ret ptr %4
}